; Function Attrs: nounwind uwtable
define internal fastcc void @mXactCachePut(i32 noundef %0, i32 noundef %1, ptr noundef readonly captures(none) %2) unnamed_addr #0 {
  %4 = load ptr, ptr @MXactContext, align 8
  %5 = icmp eq ptr %4, null
  br i1 %5, label %6, label %9

6:                                                ; preds = %3
  %7 = load ptr, ptr @TopTransactionContext, align 8
  %8 = tail call ptr @AllocSetContextCreateInternal(ptr noundef %7, ptr noundef nonnull @.str.40, i64 noundef 0, i64 noundef 1024, i64 noundef 8192) #13
  store ptr %8, ptr @MXactContext, align 8
  br label %9

9:                                                ; preds = %6, %3
  %10 = phi ptr [ %8, %6 ], [ %4, %3 ]
  %11 = sext i32 %1 to i64
  %12 = shl nsw i64 %11, 3
  %13 = add nsw i64 %12, 24
  %14 = tail call ptr @MemoryContextAlloc(ptr noundef %10, i64 noundef %13) #13
  store i32 %0, ptr %14, align 8
  %15 = getelementptr inbounds nuw i8, ptr %14, i64 4
  store i32 %1, ptr %15, align 4
  %16 = getelementptr inbounds nuw i8, ptr %14, i64 24
  tail call void @llvm.memcpy.p0.p0.i64(ptr nonnull align 8 %16, ptr align 4 %2, i64 %12, i1 false)
  tail call void @pg_qsort(ptr noundef nonnull %16, i64 noundef %11, i64 noundef 8, ptr noundef nonnull @mxactMemberComparator) #13
  %17 = getelementptr inbounds nuw i8, ptr %14, i64 8
  %18 = load ptr, ptr getelementptr inbounds nuw (i8, ptr @MXactCache, i64 8), align 8
  %19 = icmp eq ptr %18, null
  br i1 %19, label %20, label %dclist_push_head.exit

20:                                               ; preds = %9
  store ptr @MXactCache, ptr @MXactCache, align 8
  store i32 0, ptr getelementptr inbounds nuw (i8, ptr @MXactCache, i64 16), align 8
  br label %dclist_push_head.exit

dclist_push_head.exit:                            ; preds = %9, %20
  %21 = phi ptr [ @MXactCache, %20 ], [ %18, %9 ]
  %22 = getelementptr inbounds nuw i8, ptr %14, i64 16
  store ptr %21, ptr %22, align 8
  store ptr @MXactCache, ptr %17, align 8
  store ptr %17, ptr %21, align 8
  store ptr %17, ptr getelementptr inbounds nuw (i8, ptr @MXactCache, i64 8), align 8
  %23 = load i32, ptr getelementptr inbounds nuw (i8, ptr @MXactCache, i64 16), align 8
  %24 = add i32 %23, 1
  store i32 %24, ptr getelementptr inbounds nuw (i8, ptr @MXactCache, i64 16), align 8
  %25 = icmp ugt i32 %24, 256
  br i1 %25, label %26, label %36

26:                                               ; preds = %dclist_push_head.exit
  %27 = load ptr, ptr @MXactCache, align 8
  %28 = getelementptr inbounds nuw i8, ptr %27, i64 8
  %29 = load ptr, ptr %28, align 8
  %30 = load ptr, ptr %27, align 8
  %31 = getelementptr inbounds nuw i8, ptr %30, i64 8
  store ptr %29, ptr %31, align 8
  %32 = load ptr, ptr %27, align 8
  store ptr %32, ptr %29, align 8
  %33 = load i32, ptr getelementptr inbounds nuw (i8, ptr @MXactCache, i64 16), align 8
  %34 = add i32 %33, -1
  store i32 %34, ptr getelementptr inbounds nuw (i8, ptr @MXactCache, i64 16), align 8
  %35 = getelementptr inbounds i8, ptr %27, i64 -8
  tail call void @pfree(ptr noundef nonnull %35) #13
  br label %36

36:                                               ; preds = %26, %dclist_push_head.exit
  ret void
}